target datalayout = "e-m:e-p270:32:32-p271:32:32-p272:64:64-i64:64-i128:128-f80:128-n8:16:32:64-S128"
target triple = "x86_64-pc-linux-gnu"

%struct.ImVec2 = type { float, float }
%struct.ImVec4 = type { float, float, float, float }
%struct.ImVector = type { i32, i32, ptr }
%struct.ImDrawList = type { %struct.ImVector.0, %struct.ImVector.1, %struct.ImVector.2, i32, i32, ptr, ptr, ptr, %struct.ImVector, %struct.ImDrawCmdHeader, %struct.ImDrawListSplitter, %struct.ImVector.4, %struct.ImVector.5, float, ptr }
%struct.ImVector.0 = type { i32, i32, ptr }
%struct.ImVector.1 = type { i32, i32, ptr }
%struct.ImVector.2 = type { i32, i32, ptr }
%struct.ImDrawCmdHeader = type <{ %struct.ImVec4, ptr, i32, [4 x i8] }>
%struct.ImDrawListSplitter = type { i32, i32, %struct.ImVector.3 }
%struct.ImVector.3 = type { i32, i32, ptr }
%struct.ImVector.4 = type { i32, i32, ptr }
%struct.ImVector.5 = type { i32, i32, ptr }

; Function Attrs: inlinehint mustprogress uwtable
define linkonce_odr dso_local void @_ZN10ImDrawList10PathStrokeEjif(ptr noundef nonnull align 8 dereferenceable(200) %0, i32 noundef %1, i32 noundef %2, float noundef %3) #5 comdat align 2 {
  %5 = alloca ptr, align 8
  %6 = alloca i32, align 4
  %7 = alloca i32, align 4
  %8 = alloca float, align 4
  store ptr %0, ptr %5, align 8, !tbaa !43
  store i32 %1, ptr %6, align 4, !tbaa !21
  store i32 %2, ptr %7, align 4, !tbaa !21
  store float %3, ptr %8, align 4, !tbaa !12
  %9 = load ptr, ptr %5, align 8
  %10 = getelementptr inbounds nuw %struct.ImDrawList, ptr %9, i32 0, i32 8
  %11 = getelementptr inbounds nuw %struct.ImVector, ptr %10, i32 0, i32 2
  %12 = load ptr, ptr %11, align 8, !tbaa !161
  %13 = getelementptr inbounds nuw %struct.ImDrawList, ptr %9, i32 0, i32 8
  %14 = getelementptr inbounds nuw %struct.ImVector, ptr %13, i32 0, i32 0
  %15 = load i32, ptr %14, align 8, !tbaa !160
  %16 = load i32, ptr %6, align 4, !tbaa !21
  %17 = load i32, ptr %7, align 4, !tbaa !21
  %18 = load float, ptr %8, align 4, !tbaa !12
  call void @_ZN10ImDrawList11AddPolylineEPK6ImVec2ijif(ptr noundef nonnull align 8 dereferenceable(200) %9, ptr noundef %12, i32 noundef %15, i32 noundef %16, i32 noundef %17, float noundef %18)
  %19 = getelementptr inbounds nuw %struct.ImDrawList, ptr %9, i32 0, i32 8
  %20 = getelementptr inbounds nuw %struct.ImVector, ptr %19, i32 0, i32 0
  store i32 0, ptr %20, align 8, !tbaa !160
  ret void
}

; Function Attrs: inlinehint mustprogress uwtable
define internal <2 x float> @_ZmiRK6ImVec2S1_(ptr noundef nonnull align 4 dereferenceable(8) %0, ptr noundef nonnull align 4 dereferenceable(8) %1) #13 {
  %3 = alloca %struct.ImVec2, align 4
  %4 = alloca ptr, align 8
  %5 = alloca ptr, align 8
  store ptr %0, ptr %4, align 8, !tbaa !33
  store ptr %1, ptr %5, align 8, !tbaa !33
  %6 = load ptr, ptr %4, align 8, !tbaa !33
  %7 = getelementptr inbounds nuw %struct.ImVec2, ptr %6, i32 0, i32 0
  %8 = load float, ptr %7, align 4, !tbaa !34
  %9 = load ptr, ptr %5, align 8, !tbaa !33
  %10 = getelementptr inbounds nuw %struct.ImVec2, ptr %9, i32 0, i32 0
  %11 = load float, ptr %10, align 4, !tbaa !34
  %12 = fsub float %8, %11
  %13 = load ptr, ptr %4, align 8, !tbaa !33
  %14 = getelementptr inbounds nuw %struct.ImVec2, ptr %13, i32 0, i32 1
  %15 = load float, ptr %14, align 4, !tbaa !35
  %16 = load ptr, ptr %5, align 8, !tbaa !33
  %17 = getelementptr inbounds nuw %struct.ImVec2, ptr %16, i32 0, i32 1
  %18 = load float, ptr %17, align 4, !tbaa !35
  %19 = fsub float %15, %18
  call void @_ZN6ImVec2C2Eff(ptr noundef nonnull align 4 dereferenceable(8) %3, float noundef %12, float noundef %19)
  %20 = load <2 x float>, ptr %3, align 4
  ret <2 x float> %20
}

; Function Attrs: inlinehint mustprogress uwtable
define internal <2 x float> @_ZplRK6ImVec2S1_(ptr noundef nonnull align 4 dereferenceable(8) %0, ptr noundef nonnull align 4 dereferenceable(8) %1) #13 {
  %3 = alloca %struct.ImVec2, align 4
  %4 = alloca ptr, align 8
  %5 = alloca ptr, align 8
  store ptr %0, ptr %4, align 8, !tbaa !33
  store ptr %1, ptr %5, align 8, !tbaa !33
  %6 = load ptr, ptr %4, align 8, !tbaa !33
  %7 = getelementptr inbounds nuw %struct.ImVec2, ptr %6, i32 0, i32 0
  %8 = load float, ptr %7, align 4, !tbaa !34
  %9 = load ptr, ptr %5, align 8, !tbaa !33
  %10 = getelementptr inbounds nuw %struct.ImVec2, ptr %9, i32 0, i32 0
  %11 = load float, ptr %10, align 4, !tbaa !34
  %12 = fadd float %8, %11
  %13 = load ptr, ptr %4, align 8, !tbaa !33
  %14 = getelementptr inbounds nuw %struct.ImVec2, ptr %13, i32 0, i32 1
  %15 = load float, ptr %14, align 4, !tbaa !35
  %16 = load ptr, ptr %5, align 8, !tbaa !33
  %17 = getelementptr inbounds nuw %struct.ImVec2, ptr %16, i32 0, i32 1
  %18 = load float, ptr %17, align 4, !tbaa !35
  %19 = fadd float %15, %18
  call void @_ZN6ImVec2C2Eff(ptr noundef nonnull align 4 dereferenceable(8) %3, float noundef %12, float noundef %19)
  %20 = load <2 x float>, ptr %3, align 4
  ret <2 x float> %20
}

; Function Attrs: mustprogress nounwind uwtable
define linkonce_odr dso_local void @_ZN6ImVec2C2Eff(ptr noundef nonnull align 4 dereferenceable(8) %0, float noundef %1, float noundef %2) unnamed_addr #3 comdat align 2 {
  %4 = alloca ptr, align 8
  %5 = alloca float, align 4
  %6 = alloca float, align 4
  store ptr %0, ptr %4, align 8, !tbaa !33
  store float %1, ptr %5, align 4, !tbaa !12
  store float %2, ptr %6, align 4, !tbaa !12
  %7 = load ptr, ptr %4, align 8
  %8 = getelementptr inbounds nuw %struct.ImVec2, ptr %7, i32 0, i32 0
  %9 = load float, ptr %5, align 4, !tbaa !12
  store float %9, ptr %8, align 4, !tbaa !34
  %10 = getelementptr inbounds nuw %struct.ImVec2, ptr %7, i32 0, i32 1
  %11 = load float, ptr %6, align 4, !tbaa !12
  store float %11, ptr %10, align 4, !tbaa !35
  ret void
}

; Function Attrs: mustprogress uwtable
define dso_local void @_ZN10ImDrawList7AddRectERK6ImVec2S2_jfif(ptr noundef nonnull align 8 dereferenceable(200) %0, ptr noundef nonnull align 4 dereferenceable(8) %1, ptr noundef nonnull align 4 dereferenceable(8) %2, i32 noundef %3, float noundef %4, i32 noundef %5, float noundef %6) #0 align 2 {
  %8 = alloca ptr, align 8
  %9 = alloca ptr, align 8
  %10 = alloca ptr, align 8
  %11 = alloca i32, align 4
  %12 = alloca float, align 4
  %13 = alloca i32, align 4
  %14 = alloca float, align 4
  %15 = alloca %struct.ImVec2, align 4
  %16 = alloca %struct.ImVec2, align 4
  %17 = alloca %struct.ImVec2, align 4
  %18 = alloca %struct.ImVec2, align 4
  %19 = alloca %struct.ImVec2, align 4
  %20 = alloca %struct.ImVec2, align 4
  %21 = alloca %struct.ImVec2, align 4
  %22 = alloca %struct.ImVec2, align 4
  store ptr %0, ptr %8, align 8, !tbaa !43
  store ptr %1, ptr %9, align 8, !tbaa !33
  store ptr %2, ptr %10, align 8, !tbaa !33
  store i32 %3, ptr %11, align 4, !tbaa !21
  store float %4, ptr %12, align 4, !tbaa !12
  store i32 %5, ptr %13, align 4, !tbaa !21
  store float %6, ptr %14, align 4, !tbaa !12
  %23 = load ptr, ptr %8, align 8
  %24 = load i32, ptr %11, align 4, !tbaa !21
  %25 = and i32 %24, -16777216
  %26 = icmp eq i32 %25, 0
  br i1 %26, label %27, label %28

27:                                               ; preds = %7
  br label %50

28:                                               ; preds = %7
  %29 = getelementptr inbounds nuw %struct.ImDrawList, ptr %23, i32 0, i32 3
  %30 = load i32, ptr %29, align 8, !tbaa !62
  %31 = and i32 %30, 1
  %32 = icmp ne i32 %31, 0
  br i1 %32, label %33, label %40

33:                                               ; preds = %28
  call void @llvm.lifetime.start.p0(i64 8, ptr %15) #17
  %34 = load ptr, ptr %9, align 8, !tbaa !33
  call void @llvm.lifetime.start.p0(i64 8, ptr %16) #17
  call void @_ZN6ImVec2C2Eff(ptr noundef nonnull align 4 dereferenceable(8) %16, float noundef 5.000000e-01, float noundef 5.000000e-01)
  %35 = call <2 x float> @_ZplRK6ImVec2S1_(ptr noundef nonnull align 4 dereferenceable(8) %34, ptr noundef nonnull align 4 dereferenceable(8) %16)
  store <2 x float> %35, ptr %15, align 4
  call void @llvm.lifetime.start.p0(i64 8, ptr %17) #17
  %36 = load ptr, ptr %10, align 8, !tbaa !33
  call void @llvm.lifetime.start.p0(i64 8, ptr %18) #17
  call void @_ZN6ImVec2C2Eff(ptr noundef nonnull align 4 dereferenceable(8) %18, float noundef 5.000000e-01, float noundef 5.000000e-01)
  %37 = call <2 x float> @_ZmiRK6ImVec2S1_(ptr noundef nonnull align 4 dereferenceable(8) %36, ptr noundef nonnull align 4 dereferenceable(8) %18)
  store <2 x float> %37, ptr %17, align 4
  %38 = load float, ptr %12, align 4, !tbaa !12
  %39 = load i32, ptr %13, align 4, !tbaa !21
  call void @_ZN10ImDrawList8PathRectERK6ImVec2S2_fi(ptr noundef nonnull align 8 dereferenceable(200) %23, ptr noundef nonnull align 4 dereferenceable(8) %15, ptr noundef nonnull align 4 dereferenceable(8) %17, float noundef %38, i32 noundef %39)
  call void @llvm.lifetime.end.p0(i64 8, ptr %18) #17
  call void @llvm.lifetime.end.p0(i64 8, ptr %17) #17
  call void @llvm.lifetime.end.p0(i64 8, ptr %16) #17
  call void @llvm.lifetime.end.p0(i64 8, ptr %15) #17
  br label %47

40:                                               ; preds = %28
  call void @llvm.lifetime.start.p0(i64 8, ptr %19) #17
  %41 = load ptr, ptr %9, align 8, !tbaa !33
  call void @llvm.lifetime.start.p0(i64 8, ptr %20) #17
  call void @_ZN6ImVec2C2Eff(ptr noundef nonnull align 4 dereferenceable(8) %20, float noundef 5.000000e-01, float noundef 5.000000e-01)
  %42 = call <2 x float> @_ZplRK6ImVec2S1_(ptr noundef nonnull align 4 dereferenceable(8) %41, ptr noundef nonnull align 4 dereferenceable(8) %20)
  store <2 x float> %42, ptr %19, align 4
  call void @llvm.lifetime.start.p0(i64 8, ptr %21) #17
  %43 = load ptr, ptr %10, align 8, !tbaa !33
  call void @llvm.lifetime.start.p0(i64 8, ptr %22) #17
  call void @_ZN6ImVec2C2Eff(ptr noundef nonnull align 4 dereferenceable(8) %22, float noundef 0x3FDF5C2900000000, float noundef 0x3FDF5C2900000000)
  %44 = call <2 x float> @_ZmiRK6ImVec2S1_(ptr noundef nonnull align 4 dereferenceable(8) %43, ptr noundef nonnull align 4 dereferenceable(8) %22)
  store <2 x float> %44, ptr %21, align 4
  %45 = load float, ptr %12, align 4, !tbaa !12
  %46 = load i32, ptr %13, align 4, !tbaa !21
  call void @_ZN10ImDrawList8PathRectERK6ImVec2S2_fi(ptr noundef nonnull align 8 dereferenceable(200) %23, ptr noundef nonnull align 4 dereferenceable(8) %19, ptr noundef nonnull align 4 dereferenceable(8) %21, float noundef %45, i32 noundef %46)
  call void @llvm.lifetime.end.p0(i64 8, ptr %22) #17
  call void @llvm.lifetime.end.p0(i64 8, ptr %21) #17
  call void @llvm.lifetime.end.p0(i64 8, ptr %20) #17
  call void @llvm.lifetime.end.p0(i64 8, ptr %19) #17
  br label %47

47:                                               ; preds = %40, %33
  %48 = load i32, ptr %11, align 4, !tbaa !21
  %49 = load float, ptr %14, align 4, !tbaa !12
  call void @_ZN10ImDrawList10PathStrokeEjif(ptr noundef nonnull align 8 dereferenceable(200) %23, i32 noundef %48, i32 noundef 1, float noundef %49)
  br label %50

50:                                               ; preds = %47, %27
  ret void
}