; Function Attrs: mustprogress uwtable
define dso_local void @_ZN10ImDrawList7AddRectERK6ImVec2S2_jfif(ptr noundef nonnull align 8 dereferenceable(200) %0, ptr noundef nonnull readonly align 4 captures(none) dereferenceable(8) %1, ptr noundef nonnull readonly align 4 captures(none) dereferenceable(8) %2, i32 noundef %3, float noundef %4, i32 noundef %5, float noundef %6) local_unnamed_addr #0 align 2 {
  %8 = alloca %struct.ImVec2, align 8
  %9 = alloca %struct.ImVec2, align 8
  %10 = alloca %struct.ImVec2, align 8
  %11 = alloca %struct.ImVec2, align 8
  %12 = icmp ult i32 %3, 16777216
  br i1 %12, label %34, label %13

13:                                               ; preds = %7
  %14 = getelementptr inbounds nuw i8, ptr %0, i64 48
  %15 = load i32, ptr %14, align 8, !tbaa !52
  %16 = and i32 %15, 1
  %.not = icmp eq i32 %16, 0
  %17 = getelementptr inbounds nuw i8, ptr %1, i64 4
  %18 = getelementptr inbounds nuw i8, ptr %2, i64 4
  br i1 %.not, label %24, label %19

19:                                               ; preds = %13
  call void @llvm.lifetime.start.p0(i64 8, ptr nonnull %8) #42
  %.val14 = load float, ptr %1, align 4, !tbaa !93
  %.val15 = load float, ptr %17, align 4, !tbaa !94
  %20 = fadd float %.val14, 5.000000e-01
  %21 = fadd float %.val15, 5.000000e-01
  %.sroa.0.0.vec.insert.i = insertelement <2 x float> poison, float %20, i64 0
  %.sroa.0.4.vec.insert.i = insertelement <2 x float> %.sroa.0.0.vec.insert.i, float %21, i64 1
  store <2 x float> %.sroa.0.4.vec.insert.i, ptr %8, align 8
  call void @llvm.lifetime.start.p0(i64 8, ptr nonnull %9) #42
  %.val22 = load float, ptr %2, align 4, !tbaa !93
  %.val23 = load float, ptr %18, align 4, !tbaa !94
  %22 = fadd float %.val22, -5.000000e-01
  %23 = fadd float %.val23, -5.000000e-01
  %.sroa.0.0.vec.insert.i26 = insertelement <2 x float> poison, float %22, i64 0
  %.sroa.0.4.vec.insert.i27 = insertelement <2 x float> %.sroa.0.0.vec.insert.i26, float %23, i64 1
  store <2 x float> %.sroa.0.4.vec.insert.i27, ptr %9, align 8
  call void @_ZN10ImDrawList8PathRectERK6ImVec2S2_fi(ptr noundef nonnull align 8 dereferenceable(200) %0, ptr noundef nonnull align 4 dereferenceable(8) %8, ptr noundef nonnull align 4 dereferenceable(8) %9, float noundef %4, i32 noundef %5)
  call void @llvm.lifetime.end.p0(i64 8, ptr nonnull %9) #42
  call void @llvm.lifetime.end.p0(i64 8, ptr nonnull %8) #42
  br label %29

24:                                               ; preds = %13
  call void @llvm.lifetime.start.p0(i64 8, ptr nonnull %10) #42
  %.val = load float, ptr %1, align 4, !tbaa !93
  %.val11 = load float, ptr %17, align 4, !tbaa !94
  %25 = fadd float %.val, 5.000000e-01
  %26 = fadd float %.val11, 5.000000e-01
  %.sroa.0.0.vec.insert.i28 = insertelement <2 x float> poison, float %25, i64 0
  %.sroa.0.4.vec.insert.i29 = insertelement <2 x float> %.sroa.0.0.vec.insert.i28, float %26, i64 1
  store <2 x float> %.sroa.0.4.vec.insert.i29, ptr %10, align 8
  call void @llvm.lifetime.start.p0(i64 8, ptr nonnull %11) #42
  %.val18 = load float, ptr %2, align 4, !tbaa !93
  %.val19 = load float, ptr %18, align 4, !tbaa !94
  %27 = fadd float %.val18, 0xBFDF5C2900000000
  %28 = fadd float %.val19, 0xBFDF5C2900000000
  %.sroa.0.0.vec.insert.i30 = insertelement <2 x float> poison, float %27, i64 0
  %.sroa.0.4.vec.insert.i31 = insertelement <2 x float> %.sroa.0.0.vec.insert.i30, float %28, i64 1
  store <2 x float> %.sroa.0.4.vec.insert.i31, ptr %11, align 8
  call void @_ZN10ImDrawList8PathRectERK6ImVec2S2_fi(ptr noundef nonnull align 8 dereferenceable(200) %0, ptr noundef nonnull align 4 dereferenceable(8) %10, ptr noundef nonnull align 4 dereferenceable(8) %11, float noundef %4, i32 noundef %5)
  call void @llvm.lifetime.end.p0(i64 8, ptr nonnull %11) #42
  call void @llvm.lifetime.end.p0(i64 8, ptr nonnull %10) #42
  br label %29

29:                                               ; preds = %24, %19
  %30 = getelementptr inbounds nuw i8, ptr %0, i64 80
  %31 = getelementptr inbounds nuw i8, ptr %0, i64 88
  %32 = load ptr, ptr %31, align 8, !tbaa !125
  %33 = load i32, ptr %30, align 8, !tbaa !124
  tail call void @_ZN10ImDrawList11AddPolylineEPK6ImVec2ijif(ptr noundef nonnull align 8 dereferenceable(200) %0, ptr noundef %32, i32 noundef %33, i32 noundef %3, i32 noundef 1, float noundef %6)
  store i32 0, ptr %30, align 8, !tbaa !124
  br label %34

34:                                               ; preds = %7, %29
  ret void
}